target datalayout = "e-m:e-p270:32:32-p271:32:32-p272:64:64-i64:64-i128:128-f80:128-n8:16:32:64-S128"
target triple = "x86_64-pc-linux-gnu"

%struct.ident_t = type { i32, i32, i32, i32, ptr }
%"class.LightGBM::ScoreUpdater" = type <{ ptr, i32, [4 x i8], ptr, %"class.std::vector.138", i8, [7 x i8] }>
%"class.std::vector.138" = type { %"struct.std::_Vector_base.139" }
%"struct.std::_Vector_base.139" = type { %"struct.std::_Vector_base<double, LightGBM::Common::AlignmentAllocator<double>>::_Vector_impl" }
%"struct.std::_Vector_base<double, LightGBM::Common::AlignmentAllocator<double>>::_Vector_impl" = type { %"struct.std::_Vector_base<double, LightGBM::Common::AlignmentAllocator<double>>::_Vector_impl_data" }
%"struct.std::_Vector_base<double, LightGBM::Common::AlignmentAllocator<double>>::_Vector_impl_data" = type { ptr, ptr, ptr }

@1 = private unnamed_addr constant %struct.ident_t { i32 0, i32 514, i32 0, i32 22, ptr @0 }, align 8

; Function Attrs: mustprogress nounwind uwtable
define linkonce_odr noundef nonnull align 8 dereferenceable(8) ptr @_ZNSt6vectorIdN8LightGBM6Common18AlignmentAllocatorIdLm32EEEEixEm(ptr noundef nonnull align 8 dereferenceable(24) %0, i64 noundef %1) #0 comdat align 2 {
  %3 = alloca ptr, align 8
  %4 = alloca i64, align 8
  store ptr %0, ptr %3, align 8, !tbaa !774
  store i64 %1, ptr %4, align 8, !tbaa !181
  %5 = load ptr, ptr %3, align 8
  %6 = getelementptr inbounds nuw %"struct.std::_Vector_base.139", ptr %5, i32 0, i32 0
  %7 = getelementptr inbounds nuw %"struct.std::_Vector_base<double, LightGBM::Common::AlignmentAllocator<double>>::_Vector_impl_data", ptr %6, i32 0, i32 0
  %8 = load ptr, ptr %7, align 8, !tbaa !776
  %9 = load i64, ptr %4, align 8, !tbaa !181
  %10 = getelementptr inbounds nuw double, ptr %8, i64 %9
  ret ptr %10
}

; Function Attrs: noinline norecurse nounwind uwtable
define internal void @_ZN8LightGBM12ScoreUpdater13MultiplyScoreEdi.omp_outlined(ptr noalias noundef %0, ptr noalias noundef %1, ptr noundef %2, ptr noundef nonnull align 8 dereferenceable(8) %3, ptr noundef nonnull align 8 dereferenceable(8) %4) #21 {
  %6 = alloca ptr, align 8
  %7 = alloca ptr, align 8
  %8 = alloca ptr, align 8
  %9 = alloca ptr, align 8
  %10 = alloca ptr, align 8
  %11 = alloca i32, align 4
  %12 = alloca i32, align 4
  %13 = alloca i32, align 4
  %14 = alloca i32, align 4
  %15 = alloca i32, align 4
  %16 = alloca i32, align 4
  %17 = alloca i32, align 4
  %18 = alloca i32, align 4
  %19 = alloca i32, align 4
  store ptr %0, ptr %6, align 8, !tbaa !187
  store ptr %1, ptr %7, align 8, !tbaa !187
  store ptr %2, ptr %8, align 8, !tbaa !283
  store ptr %3, ptr %9, align 8, !tbaa !217
  store ptr %4, ptr %10, align 8, !tbaa !202
  %20 = load ptr, ptr %8, align 8, !tbaa !283
  %21 = load ptr, ptr %9, align 8, !tbaa !217
  %22 = load ptr, ptr %10, align 8, !tbaa !202
  call void @llvm.lifetime.start.p0(i64 4, ptr %11) #7
  call void @llvm.lifetime.start.p0(i64 4, ptr %12) #7
  %23 = getelementptr inbounds nuw %"class.LightGBM::ScoreUpdater", ptr %20, i32 0, i32 1
  %24 = load i32, ptr %23, align 8, !tbaa !625
  store i32 %24, ptr %12, align 4, !tbaa !152
  call void @llvm.lifetime.start.p0(i64 4, ptr %13) #7
  %25 = load i32, ptr %12, align 4, !tbaa !152
  %26 = sub nsw i32 %25, 0
  %27 = sdiv i32 %26, 1
  %28 = sub nsw i32 %27, 1
  store i32 %28, ptr %13, align 4, !tbaa !152
  call void @llvm.lifetime.start.p0(i64 4, ptr %14) #7
  store i32 0, ptr %14, align 4, !tbaa !152
  call void @llvm.lifetime.end.p0(i64 4, ptr %14) #7
  %29 = load i32, ptr %12, align 4, !tbaa !152
  %30 = icmp slt i32 0, %29
  br i1 %30, label %31, label %84

31:                                               ; preds = %5
  call void @llvm.lifetime.start.p0(i64 4, ptr %15) #7
  store i32 0, ptr %15, align 4, !tbaa !152
  call void @llvm.lifetime.start.p0(i64 4, ptr %16) #7
  %32 = load i32, ptr %13, align 4, !tbaa !152
  store i32 %32, ptr %16, align 4, !tbaa !152
  call void @llvm.lifetime.start.p0(i64 4, ptr %17) #7
  store i32 1, ptr %17, align 4, !tbaa !152
  call void @llvm.lifetime.start.p0(i64 4, ptr %18) #7
  store i32 0, ptr %18, align 4, !tbaa !152
  call void @llvm.lifetime.start.p0(i64 4, ptr %19) #7
  %33 = load ptr, ptr %6, align 8
  %34 = load i32, ptr %33, align 4, !tbaa !152
  call void @__kmpc_for_static_init_4(ptr @1, i32 %34, i32 33, ptr %18, ptr %15, ptr %16, ptr %17, i32 1, i32 512)
  br label %35

35:                                               ; preds = %74, %31
  %36 = load i32, ptr %16, align 4, !tbaa !152
  %37 = load i32, ptr %13, align 4, !tbaa !152
  %38 = icmp sgt i32 %36, %37
  br i1 %38, label %39, label %41

39:                                               ; preds = %35
  %40 = load i32, ptr %13, align 4, !tbaa !152
  br label %43

41:                                               ; preds = %35
  %42 = load i32, ptr %16, align 4, !tbaa !152
  br label %43

43:                                               ; preds = %41, %39
  %44 = phi i32 [ %40, %39 ], [ %42, %41 ]
  store i32 %44, ptr %16, align 4, !tbaa !152
  %45 = load i32, ptr %15, align 4, !tbaa !152
  store i32 %45, ptr %11, align 4, !tbaa !152
  %46 = load i32, ptr %11, align 4, !tbaa !152
  %47 = load i32, ptr %16, align 4, !tbaa !152
  %48 = icmp sle i32 %46, %47
  br i1 %48, label %50, label %49

49:                                               ; preds = %43
  br label %81

50:                                               ; preds = %43
  br label %51

51:                                               ; preds = %70, %50
  %52 = load i32, ptr %11, align 4, !tbaa !152
  %53 = load i32, ptr %16, align 4, !tbaa !152
  %54 = icmp sle i32 %52, %53
  br i1 %54, label %56, label %55

55:                                               ; preds = %51
  br label %73

56:                                               ; preds = %51
  %57 = load i32, ptr %11, align 4, !tbaa !152
  %58 = mul nsw i32 %57, 1
  %59 = add nsw i32 0, %58
  store i32 %59, ptr %19, align 4, !tbaa !152
  %60 = load double, ptr %22, align 8, !tbaa !184
  %61 = getelementptr inbounds nuw %"class.LightGBM::ScoreUpdater", ptr %20, i32 0, i32 4
  %62 = load i64, ptr %21, align 8, !tbaa !181
  %63 = load i32, ptr %19, align 4, !tbaa !152
  %64 = sext i32 %63 to i64
  %65 = add i64 %62, %64
  %66 = call noundef nonnull align 8 dereferenceable(8) ptr @_ZNSt6vectorIdN8LightGBM6Common18AlignmentAllocatorIdLm32EEEEixEm(ptr noundef nonnull align 8 dereferenceable(24) %61, i64 noundef %65) #7
  %67 = load double, ptr %66, align 8, !tbaa !184
  %68 = fmul double %67, %60
  store double %68, ptr %66, align 8, !tbaa !184
  br label %69

69:                                               ; preds = %56
  br label %70

70:                                               ; preds = %69
  %71 = load i32, ptr %11, align 4, !tbaa !152
  %72 = add nsw i32 %71, 1
  store i32 %72, ptr %11, align 4, !tbaa !152
  br label %51

73:                                               ; preds = %55
  br label %74

74:                                               ; preds = %73
  %75 = load i32, ptr %15, align 4, !tbaa !152
  %76 = load i32, ptr %17, align 4, !tbaa !152
  %77 = add nsw i32 %75, %76
  store i32 %77, ptr %15, align 4, !tbaa !152
  %78 = load i32, ptr %16, align 4, !tbaa !152
  %79 = load i32, ptr %17, align 4, !tbaa !152
  %80 = add nsw i32 %78, %79
  store i32 %80, ptr %16, align 4, !tbaa !152
  br label %35

81:                                               ; preds = %49
  %82 = load ptr, ptr %6, align 8
  %83 = load i32, ptr %82, align 4, !tbaa !152
  call void @__kmpc_for_static_fini(ptr @1, i32 %83)
  call void @llvm.lifetime.end.p0(i64 4, ptr %19) #7
  call void @llvm.lifetime.end.p0(i64 4, ptr %18) #7
  call void @llvm.lifetime.end.p0(i64 4, ptr %17) #7
  call void @llvm.lifetime.end.p0(i64 4, ptr %16) #7
  call void @llvm.lifetime.end.p0(i64 4, ptr %15) #7
  br label %84

84:                                               ; preds = %81, %5
  call void @llvm.lifetime.end.p0(i64 4, ptr %13) #7
  call void @llvm.lifetime.end.p0(i64 4, ptr %12) #7
  call void @llvm.lifetime.end.p0(i64 4, ptr %11) #7
  ret void
}