; Function Attrs: noinline norecurse nounwind uwtable
define internal void @_ZN8LightGBM12ScoreUpdater13MultiplyScoreEdi.omp_outlined(ptr noalias noundef readonly captures(none) %0, ptr noalias readnone captures(none) %1, ptr noundef readonly captures(none) %2, ptr noundef nonnull readonly align 8 captures(none) dereferenceable(8) %3, ptr noundef nonnull readonly align 8 captures(none) dereferenceable(8) %4) #22 {
  %6 = alloca i32, align 4
  %7 = alloca i32, align 4
  %8 = alloca i32, align 4
  %9 = alloca i32, align 4
  %10 = getelementptr inbounds nuw i8, ptr %2, i64 8
  %11 = load i32, ptr %10, align 8, !tbaa !379
  %12 = add nsw i32 %11, -1
  %13 = icmp sgt i32 %11, 0
  br i1 %13, label %14, label %35

14:                                               ; preds = %5
  call void @llvm.lifetime.start.p0(i64 4, ptr nonnull %6) #23
  store i32 0, ptr %6, align 4, !tbaa !174
  call void @llvm.lifetime.start.p0(i64 4, ptr nonnull %7) #23
  store i32 %12, ptr %7, align 4, !tbaa !174
  call void @llvm.lifetime.start.p0(i64 4, ptr nonnull %8) #23
  store i32 1, ptr %8, align 4, !tbaa !174
  call void @llvm.lifetime.start.p0(i64 4, ptr nonnull %9) #23
  store i32 0, ptr %9, align 4, !tbaa !174
  %15 = load i32, ptr %0, align 4, !tbaa !174
  call void @__kmpc_for_static_init_4(ptr nonnull @1, i32 %15, i32 33, ptr nonnull %9, ptr nonnull %6, ptr nonnull %7, ptr nonnull %8, i32 1, i32 512)
  %.promoted = load i32, ptr %7, align 4, !tbaa !174
  %.promoted17 = load i32, ptr %6, align 4, !tbaa !174
  %16 = call i32 @llvm.smin.i32(i32 %.promoted, i32 %12)
  %.not18 = icmp sgt i32 %.promoted17, %16
  br i1 %.not18, label %34, label %.preheader.lr.ph

.preheader.lr.ph:                                 ; preds = %14
  %17 = getelementptr inbounds nuw i8, ptr %2, i64 24
  %18 = load i64, ptr %3, align 8, !tbaa !223
  %19 = load ptr, ptr %17, align 8, !tbaa !487
  %20 = getelementptr double, ptr %19, i64 %18
  %21 = load i32, ptr %8, align 4, !tbaa !174
  %22 = sext i32 %.promoted17 to i64
  %23 = sext i32 %21 to i64
  br label %.preheader

.preheader:                                       ; preds = %.preheader.lr.ph, %31
  %indvars.iv = phi i64 [ %22, %.preheader.lr.ph ], [ %indvars.iv.next, %31 ]
  %24 = phi i32 [ %16, %.preheader.lr.ph ], [ %33, %31 ]
  %25 = sext i32 %24 to i64
  br label %26

26:                                               ; preds = %.preheader, %26
  %indvars.iv22 = phi i64 [ %indvars.iv, %.preheader ], [ %indvars.iv.next23, %26 ]
  %27 = load double, ptr %4, align 8, !tbaa !314
  %28 = getelementptr double, ptr %20, i64 %indvars.iv22
  %29 = load double, ptr %28, align 8, !tbaa !314
  %30 = fmul double %27, %29
  store double %30, ptr %28, align 8, !tbaa !314
  %indvars.iv.next23 = add nsw i64 %indvars.iv22, 1
  %.not15.not = icmp slt i64 %indvars.iv22, %25
  br i1 %.not15.not, label %26, label %31

31:                                               ; preds = %26
  %indvars.iv.next = add i64 %indvars.iv, %23
  %indvars = trunc i64 %indvars.iv.next to i32
  %32 = add nsw i32 %21, %24
  %33 = call i32 @llvm.smin.i32(i32 %32, i32 %12)
  %.not = icmp slt i32 %33, %indvars
  br i1 %.not, label %._crit_edge, label %.preheader

._crit_edge:                                      ; preds = %31
  store i32 %indvars, ptr %6, align 4, !tbaa !174
  br label %34

34:                                               ; preds = %._crit_edge, %14
  %.lcssa = phi i32 [ %33, %._crit_edge ], [ %16, %14 ]
  store i32 %.lcssa, ptr %7, align 4, !tbaa !174
  call void @__kmpc_for_static_fini(ptr nonnull @1, i32 %15)
  call void @llvm.lifetime.end.p0(i64 4, ptr nonnull %9) #23
  call void @llvm.lifetime.end.p0(i64 4, ptr nonnull %8) #23
  call void @llvm.lifetime.end.p0(i64 4, ptr nonnull %7) #23
  call void @llvm.lifetime.end.p0(i64 4, ptr nonnull %6) #23
  br label %35

35:                                               ; preds = %34, %5
  ret void
}